target datalayout = "e-m:e-p270:32:32-p271:32:32-p272:64:64-i64:64-i128:128-f80:128-n8:16:32:64-S128"
target triple = "x86_64-unknown-linux-gnu"

%struct.NetClientInfo = type { i32, i64, ptr, ptr, ptr, ptr, ptr, ptr, ptr, ptr, ptr, ptr, ptr, ptr, ptr, ptr, ptr, ptr, ptr, ptr, ptr, ptr, ptr, ptr, ptr, ptr, ptr }
%struct.NetClientState = type { ptr, i32, %union.anon, ptr, ptr, ptr, ptr, [256 x i8], i8, ptr, i32, i8, i32, i32, i8, i8, i8, %union.anon.0 }
%union.anon = type { %struct.QTailQLink }
%struct.QTailQLink = type { ptr, ptr }
%union.anon.0 = type { %struct.QTailQLink }

@.str = private unnamed_addr constant [47 x i8] c"nc->info->type == NET_CLIENT_DRIVER_VHOST_USER\00", align 1
@.str.1 = private unnamed_addr constant [25 x i8] c"../qemu/net/vhost-user.c\00", align 1
@__PRETTY_FUNCTION__.vhost_user_has_vnet_hdr = private unnamed_addr constant [48 x i8] c"_Bool vhost_user_has_vnet_hdr(NetClientState *)\00", align 1

; Function Attrs: nounwind sspstrong uwtable
define internal zeroext i1 @vhost_user_has_vnet_hdr(ptr noundef %nc) #0 {
entry:
  %nc.addr = alloca ptr, align 8
  store ptr %nc, ptr %nc.addr, align 8
  %0 = load ptr, ptr %nc.addr, align 8
  %info = getelementptr inbounds %struct.NetClientState, ptr %0, i32 0, i32 0
  %1 = load ptr, ptr %info, align 8
  %type = getelementptr inbounds %struct.NetClientInfo, ptr %1, i32 0, i32 0
  %2 = load i32, ptr %type, align 8
  %cmp = icmp eq i32 %2, 12
  br i1 %cmp, label %if.then, label %if.else

if.then:                                          ; preds = %entry
  br label %if.end

if.else:                                          ; preds = %entry
  call void @__assert_fail(ptr noundef @.str, ptr noundef @.str.1, i32 noundef 198, ptr noundef @__PRETTY_FUNCTION__.vhost_user_has_vnet_hdr) #6
  unreachable

if.end:                                           ; preds = %if.then
  ret i1 true
}